; ModuleID = '52/5171.c'
source_filename = "52/5171.c"
target datalayout = "e-m:e-p270:32:32-p271:32:32-p272:64:64-i64:64-f80:128-n8:16:32:64-S128"
target triple = "x86_64-pc-linux-gnu"

@.str = private unnamed_addr constant [5 x i8] c"%d%d\00", align 1
@.str.1 = private unnamed_addr constant [3 x i8] c"%d\00", align 1
@.str.2 = private unnamed_addr constant [5 x i8] c"%d%c\00", align 1

; Function Attrs: noinline nounwind uwtable
define dso_local i32 @main() #0 {
  %1 = alloca i32, align 4
  %2 = alloca i32, align 4
  %3 = alloca i32, align 4
  %4 = alloca i32, align 4
  %5 = alloca i32*, align 8
  store i32 0, i32* %1, align 4
  %6 = call i32 (i8*, ...) @__isoc99_scanf(i8* getelementptr inbounds ([5 x i8], [5 x i8]* @.str, i64 0, i64 0), i32* %2, i32* %3)
  %7 = load i32, i32* %2, align 4
  %8 = sext i32 %7 to i64
  %9 = mul i64 %8, 4
  %10 = call noalias i8* @malloc(i64 %9) #3
  %11 = bitcast i8* %10 to i32*
  store i32* %11, i32** %5, align 8
  %12 = load i32, i32* %3, align 4
  store i32 %12, i32* %4, align 4
  br label %13

13:                                               ; preds = %24, %0
  %14 = load i32, i32* %4, align 4
  %15 = load i32, i32* %2, align 4
  %16 = sub nsw i32 %15, 1
  %17 = icmp sle i32 %14, %16
  br i1 %17, label %18, label %27

18:                                               ; preds = %13
  %19 = load i32*, i32** %5, align 8
  %20 = load i32, i32* %4, align 4
  %21 = sext i32 %20 to i64
  %22 = getelementptr inbounds i32, i32* %19, i64 %21
  %23 = call i32 (i8*, ...) @__isoc99_scanf(i8* getelementptr inbounds ([3 x i8], [3 x i8]* @.str.1, i64 0, i64 0), i32* %22)
  br label %24

24:                                               ; preds = %18
  %25 = load i32, i32* %4, align 4
  %26 = add nsw i32 %25, 1
  store i32 %26, i32* %4, align 4
  br label %13

27:                                               ; preds = %13
  store i32 0, i32* %4, align 4
  br label %28

28:                                               ; preds = %38, %27
  %29 = load i32, i32* %4, align 4
  %30 = load i32, i32* %3, align 4
  %31 = icmp slt i32 %29, %30
  br i1 %31, label %32, label %41

32:                                               ; preds = %28
  %33 = load i32*, i32** %5, align 8
  %34 = load i32, i32* %4, align 4
  %35 = sext i32 %34 to i64
  %36 = getelementptr inbounds i32, i32* %33, i64 %35
  %37 = call i32 (i8*, ...) @__isoc99_scanf(i8* getelementptr inbounds ([3 x i8], [3 x i8]* @.str.1, i64 0, i64 0), i32* %36)
  br label %38

38:                                               ; preds = %32
  %39 = load i32, i32* %4, align 4
  %40 = add nsw i32 %39, 1
  store i32 %40, i32* %4, align 4
  br label %28

41:                                               ; preds = %28
  store i32 0, i32* %4, align 4
  br label %42

42:                                               ; preds = %59, %41
  %43 = load i32, i32* %4, align 4
  %44 = load i32, i32* %2, align 4
  %45 = icmp slt i32 %43, %44
  br i1 %45, label %46, label %62

46:                                               ; preds = %42
  %47 = load i32*, i32** %5, align 8
  %48 = load i32, i32* %4, align 4
  %49 = sext i32 %48 to i64
  %50 = getelementptr inbounds i32, i32* %47, i64 %49
  %51 = load i32, i32* %50, align 4
  %52 = load i32, i32* %4, align 4
  %53 = load i32, i32* %2, align 4
  %54 = sub nsw i32 %53, 1
  %55 = icmp slt i32 %52, %54
  %56 = zext i1 %55 to i64
  %57 = select i1 %55, i32 32, i32 10
  %58 = call i32 (i8*, ...) @printf(i8* getelementptr inbounds ([5 x i8], [5 x i8]* @.str.2, i64 0, i64 0), i32 %51, i32 %57)
  br label %59

59:                                               ; preds = %46
  %60 = load i32, i32* %4, align 4
  %61 = add nsw i32 %60, 1
  store i32 %61, i32* %4, align 4
  br label %42

62:                                               ; preds = %42
  ret i32 0
}

declare dso_local i32 @__isoc99_scanf(i8*, ...) #1

; Function Attrs: nounwind
declare dso_local noalias i8* @malloc(i64) #2

declare dso_local i32 @printf(i8*, ...) #1


!llvm.module.flags = !{!0}
!llvm.ident = !{!1}

!0 = !{i32 1, !"wchar_size", i32 4}
!1 = !{!"clang version 10.0.0-4ubuntu1 "}
